target datalayout = "e-m:e-p270:32:32-p271:32:32-p272:64:64-i64:64-i128:128-f80:128-n8:16:32:64-S128"
target triple = "x86_64-unknown-linux-gnu"

%"class.icu_75::StackUResourceBundle" = type { %struct.UResourceBundle }
%struct.UResourceBundle = type { ptr, ptr, ptr, ptr, ptr, [64 x i8], i32, i32, i8, i8, i32, i32, i32, i32 }

@.str.2 = private unnamed_addr constant [6 x i8] c"links\00", align 1

; Function Attrs: mustprogress nounwind uwtable
define linkonce_odr noundef ptr @_ZN6icu_7520StackUResourceBundle8getAliasEv(ptr noundef nonnull align 8 dereferenceable(136) %this) #2 comdat align 2 {
entry:
  %this.addr = alloca ptr, align 8
  store ptr %this, ptr %this.addr, align 8
  %this1 = load ptr, ptr %this.addr, align 8
  %bundle = getelementptr inbounds %"class.icu_75::StackUResourceBundle", ptr %this1, i32 0, i32 0
  ret ptr %bundle
}

; Function Attrs: mustprogress nounwind uwtable
define internal noundef signext i8 @_ZL9U_SUCCESS10UErrorCode(i32 noundef %code) #2 {
entry:
  %code.addr = alloca i32, align 4
  store i32 %code, ptr %code.addr, align 4
  %0 = load i32, ptr %code.addr, align 4
  %cmp = icmp sle i32 %0, 0
  %conv = zext i1 %cmp to i8
  ret i8 %conv
}

; Function Attrs: mustprogress nounwind uwtable
define linkonce_odr noundef nonnull align 8 dereferenceable(136) ptr @_ZN6icu_7520StackUResourceBundle3refEv(ptr noundef nonnull align 8 dereferenceable(136) %this) #2 comdat align 2 {
entry:
  %this.addr = alloca ptr, align 8
  store ptr %this, ptr %this.addr, align 8
  %this1 = load ptr, ptr %this.addr, align 8
  %bundle = getelementptr inbounds %"class.icu_75::StackUResourceBundle", ptr %this1, i32 0, i32 0
  ret ptr %bundle
}

; Function Attrs: mustprogress uwtable
define noundef i32 @_ZN6icu_758TimeZone18countEquivalentIDsERKNS_13UnicodeStringE(ptr noundef nonnull align 8 dereferenceable(64) %id) #0 align 2 personality ptr @__gxx_personality_v0 {
entry:
  %id.addr = alloca ptr, align 8
  %result = alloca i32, align 4
  %ec = alloca i32, align 4
  %res = alloca %"class.icu_75::StackUResourceBundle", align 8
  %top = alloca ptr, align 8
  %exn.slot = alloca ptr, align 8
  %ehselector.slot = alloca i32, align 4
  %r = alloca %"class.icu_75::StackUResourceBundle", align 8
  store ptr %id, ptr %id.addr, align 8
  store i32 0, ptr %result, align 4
  store i32 0, ptr %ec, align 4
  call void @_ZN6icu_7520StackUResourceBundleC1Ev(ptr noundef nonnull align 8 dereferenceable(136) %res)
  %0 = load ptr, ptr %id.addr, align 8
  %call = invoke noundef nonnull align 8 dereferenceable(136) ptr @_ZN6icu_7520StackUResourceBundle3refEv(ptr noundef nonnull align 8 dereferenceable(136) %res)
          to label %invoke.cont unwind label %lpad

invoke.cont:                                      ; preds = %entry
  %call2 = invoke noundef ptr @_ZN6icu_75L17openOlsonResourceERKNS_13UnicodeStringER15UResourceBundleR10UErrorCode(ptr noundef nonnull align 8 dereferenceable(64) %0, ptr noundef nonnull align 8 dereferenceable(136) %call, ptr noundef nonnull align 4 dereferenceable(4) %ec)
          to label %invoke.cont1 unwind label %lpad

invoke.cont1:                                     ; preds = %invoke.cont
  store ptr %call2, ptr %top, align 8
  %1 = load i32, ptr %ec, align 4
  %call4 = invoke noundef signext i8 @_ZL9U_SUCCESS10UErrorCode(i32 noundef %1)
          to label %invoke.cont3 unwind label %lpad

invoke.cont3:                                     ; preds = %invoke.cont1
  %tobool = icmp ne i8 %call4, 0
  br i1 %tobool, label %if.then, label %if.end

if.then:                                          ; preds = %invoke.cont3
  invoke void @_ZN6icu_7520StackUResourceBundleC1Ev(ptr noundef nonnull align 8 dereferenceable(136) %r)
          to label %invoke.cont5 unwind label %lpad

invoke.cont5:                                     ; preds = %if.then
  %call8 = invoke noundef ptr @_ZN6icu_7520StackUResourceBundle8getAliasEv(ptr noundef nonnull align 8 dereferenceable(136) %res)
          to label %invoke.cont7 unwind label %lpad6

invoke.cont7:                                     ; preds = %invoke.cont5
  %call10 = invoke noundef ptr @_ZN6icu_7520StackUResourceBundle8getAliasEv(ptr noundef nonnull align 8 dereferenceable(136) %r)
          to label %invoke.cont9 unwind label %lpad6

invoke.cont9:                                     ; preds = %invoke.cont7
  %call12 = invoke ptr @ures_getByKey_75(ptr noundef %call8, ptr noundef @.str.2, ptr noundef %call10, ptr noundef %ec)
          to label %invoke.cont11 unwind label %lpad6

invoke.cont11:                                    ; preds = %invoke.cont9
  %call14 = invoke noundef ptr @_ZN6icu_7520StackUResourceBundle8getAliasEv(ptr noundef nonnull align 8 dereferenceable(136) %r)
          to label %invoke.cont13 unwind label %lpad6

invoke.cont13:                                    ; preds = %invoke.cont11
  %call16 = invoke ptr @ures_getIntVector_75(ptr noundef %call14, ptr noundef %result, ptr noundef %ec)
          to label %invoke.cont15 unwind label %lpad6

invoke.cont15:                                    ; preds = %invoke.cont13
  call void @_ZN6icu_7520StackUResourceBundleD1Ev(ptr noundef nonnull align 8 dereferenceable(136) %r) #11
  br label %if.end

lpad:                                             ; preds = %if.end, %if.then, %invoke.cont1, %invoke.cont, %entry
  %2 = landingpad { ptr, i32 }
          cleanup
  %3 = extractvalue { ptr, i32 } %2, 0
  store ptr %3, ptr %exn.slot, align 8
  %4 = extractvalue { ptr, i32 } %2, 1
  store i32 %4, ptr %ehselector.slot, align 4
  br label %ehcleanup

lpad6:                                            ; preds = %invoke.cont13, %invoke.cont11, %invoke.cont9, %invoke.cont7, %invoke.cont5
  %5 = landingpad { ptr, i32 }
          cleanup
  %6 = extractvalue { ptr, i32 } %5, 0
  store ptr %6, ptr %exn.slot, align 8
  %7 = extractvalue { ptr, i32 } %5, 1
  store i32 %7, ptr %ehselector.slot, align 4
  call void @_ZN6icu_7520StackUResourceBundleD1Ev(ptr noundef nonnull align 8 dereferenceable(136) %r) #11
  br label %ehcleanup

if.end:                                           ; preds = %invoke.cont15, %invoke.cont3
  %8 = load ptr, ptr %top, align 8
  invoke void @ures_close_75(ptr noundef %8)
          to label %invoke.cont17 unwind label %lpad

invoke.cont17:                                    ; preds = %if.end
  %9 = load i32, ptr %result, align 4
  call void @_ZN6icu_7520StackUResourceBundleD1Ev(ptr noundef nonnull align 8 dereferenceable(136) %res) #11
  ret i32 %9

ehcleanup:                                        ; preds = %lpad6, %lpad
  call void @_ZN6icu_7520StackUResourceBundleD1Ev(ptr noundef nonnull align 8 dereferenceable(136) %res) #11
  br label %eh.resume

eh.resume:                                        ; preds = %ehcleanup
  %exn = load ptr, ptr %exn.slot, align 8
  %sel = load i32, ptr %ehselector.slot, align 4
  %lpad.val = insertvalue { ptr, i32 } poison, ptr %exn, 0
  %lpad.val18 = insertvalue { ptr, i32 } %lpad.val, i32 %sel, 1
  resume { ptr, i32 } %lpad.val18
}