; Function Attrs: mustprogress uwtable
define noundef i32 @_ZN6icu_758TimeZone18countEquivalentIDsERKNS_13UnicodeStringE(ptr noundef nonnull align 8 dereferenceable(64) %id) local_unnamed_addr #0 align 2 personality ptr @__gxx_personality_v0 {
entry:
  %result = alloca i32, align 4
  %ec = alloca i32, align 4
  %res = alloca %"class.icu_75::StackUResourceBundle", align 8
  %r = alloca %"class.icu_75::StackUResourceBundle", align 8
  store i32 0, ptr %result, align 4
  store i32 0, ptr %ec, align 4
  call void @_ZN6icu_7520StackUResourceBundleC1Ev(ptr noundef nonnull align 8 dereferenceable(136) %res)
  %call2 = invoke fastcc noundef ptr @_ZN6icu_75L17openOlsonResourceERKNS_13UnicodeStringER15UResourceBundleR10UErrorCode(ptr noundef nonnull align 8 dereferenceable(64) %id, ptr noundef nonnull align 8 dereferenceable(136) %res, ptr noundef nonnull align 4 dereferenceable(4) %ec)
          to label %invoke.cont1 unwind label %lpad

invoke.cont1:                                     ; preds = %entry
  %0 = load i32, ptr %ec, align 4
  %cmp.i = icmp sgt i32 %0, 0
  br i1 %cmp.i, label %if.end, label %if.then

if.then:                                          ; preds = %invoke.cont1
  invoke void @_ZN6icu_7520StackUResourceBundleC1Ev(ptr noundef nonnull align 8 dereferenceable(136) %r)
          to label %invoke.cont5 unwind label %lpad

invoke.cont5:                                     ; preds = %if.then
  %call12 = invoke ptr @ures_getByKey_75(ptr noundef nonnull %res, ptr noundef nonnull @.str.2, ptr noundef nonnull %r, ptr noundef nonnull %ec)
          to label %invoke.cont11 unwind label %lpad6

invoke.cont11:                                    ; preds = %invoke.cont5
  %call16 = invoke ptr @ures_getIntVector_75(ptr noundef nonnull %r, ptr noundef nonnull %result, ptr noundef nonnull %ec)
          to label %invoke.cont15 unwind label %lpad6

invoke.cont15:                                    ; preds = %invoke.cont11
  call void @_ZN6icu_7520StackUResourceBundleD1Ev(ptr noundef nonnull align 8 dereferenceable(136) %r) #18
  br label %if.end

lpad:                                             ; preds = %if.end, %if.then, %entry
  %1 = landingpad { ptr, i32 }
          cleanup
  br label %ehcleanup

lpad6:                                            ; preds = %invoke.cont11, %invoke.cont5
  %2 = landingpad { ptr, i32 }
          cleanup
  call void @_ZN6icu_7520StackUResourceBundleD1Ev(ptr noundef nonnull align 8 dereferenceable(136) %r) #18
  br label %ehcleanup

if.end:                                           ; preds = %invoke.cont15, %invoke.cont1
  invoke void @ures_close_75(ptr noundef %call2)
          to label %invoke.cont17 unwind label %lpad

invoke.cont17:                                    ; preds = %if.end
  %3 = load i32, ptr %result, align 4
  call void @_ZN6icu_7520StackUResourceBundleD1Ev(ptr noundef nonnull align 8 dereferenceable(136) %res) #18
  ret i32 %3

ehcleanup:                                        ; preds = %lpad6, %lpad
  %.pn = phi { ptr, i32 } [ %1, %lpad ], [ %2, %lpad6 ]
  call void @_ZN6icu_7520StackUResourceBundleD1Ev(ptr noundef nonnull align 8 dereferenceable(136) %res) #18
  resume { ptr, i32 } %.pn
}